target datalayout = "e-m:e-p270:32:32-p271:32:32-p272:64:64-i64:64-i128:128-f80:128-n8:16:32:64-S128"
target triple = "x86_64-pc-linux-gnu"

; Function Attrs: mustprogress nounwind uwtable
define noundef ptr @_ZN19OpenColorIO_v2_5dev14GroupTransform25GetFormatExtensionByIndexEi(i32 noundef %0) #3 align 2 personality ptr @__gxx_personality_v0 {
  %2 = alloca i32, align 4
  store i32 %0, ptr %2, align 4, !tbaa !68
  %3 = invoke noundef nonnull align 8 dereferenceable(264) ptr @_ZN19OpenColorIO_v2_5dev14FormatRegistry11GetInstanceEv()
          to label %4 unwind label %7

4:                                                ; preds = %1
  %5 = load i32, ptr %2, align 4, !tbaa !68
  %6 = call noundef ptr @_ZNK19OpenColorIO_v2_5dev14FormatRegistry25getFormatExtensionByIndexEii(ptr noundef nonnull align 8 dereferenceable(264) %3, i32 noundef 4, i32 noundef %5) #21
  ret ptr %6

7:                                                ; preds = %1
  %8 = landingpad { ptr, i32 }
          catch ptr null
  %9 = extractvalue { ptr, i32 } %8, 0
  call void @__clang_call_terminate(ptr %9) #23
  unreachable
}