; Function Attrs: mustprogress nounwind uwtable
define noundef ptr @_ZN19OpenColorIO_v2_5dev14GroupTransform25GetFormatExtensionByIndexEi(i32 noundef %0) local_unnamed_addr #3 align 2 personality ptr @__gxx_personality_v0 {
  %2 = invoke noundef nonnull align 8 dereferenceable(264) ptr @_ZN19OpenColorIO_v2_5dev14FormatRegistry11GetInstanceEv()
          to label %3 unwind label %5

3:                                                ; preds = %1
  %4 = tail call noundef ptr @_ZNK19OpenColorIO_v2_5dev14FormatRegistry25getFormatExtensionByIndexEii(ptr noundef nonnull align 8 dereferenceable(264) %2, i32 noundef 4, i32 noundef %0) #24
  ret ptr %4

5:                                                ; preds = %1
  %6 = landingpad { ptr, i32 }
          catch ptr null
  %7 = extractvalue { ptr, i32 } %6, 0
  tail call void @__clang_call_terminate(ptr %7) #26
  unreachable
}